; Function Attrs: nounwind uwtable
define internal void @dissect_rx_antenna_ports_value(ptr noundef %0, ptr noundef %1) #0 {
  %3 = alloca i32, align 4
  %4 = load i32, ptr @hf_nfapi_rx_antenna_ports, align 4
  %5 = call ptr @ptvcursor_add_ret_uint(ptr noundef %0, i32 noundef %4, i32 noundef 2, i32 noundef 0, ptr noundef nonnull %3) #7
  %6 = load i32, ptr %3, align 4
  switch i32 %6, label %7 [
    i32 16, label %9
    i32 8, label %9
    i32 4, label %9
    i32 2, label %9
    i32 1, label %9
  ]

7:                                                ; preds = %2
  %8 = call ptr (ptr, ptr, ptr, ptr, ...) @expert_add_info_format(ptr noundef %1, ptr noundef %5, ptr noundef nonnull @ei_invalid_range, ptr noundef nonnull @.str.1755) #7
  br label %9

9:                                                ; preds = %2, %2, %2, %2, %2, %7
  ret void
}